target datalayout = "e-m:e-p270:32:32-p271:32:32-p272:64:64-i64:64-i128:128-f80:128-n8:16:32:64-S128"
target triple = "x86_64-pc-linux-gnu"

@saw_mechanism = hidden global i32 0, align 4
@next_level_value = hidden global ptr null, align 8
@MechType_oid = internal global ptr null, align 8

; Function Attrs: nounwind uwtable
define internal i32 @dissect_spnego_MechType(i1 noundef zeroext %0, ptr noundef %1, i32 noundef %2, ptr noundef %3, ptr noundef %4, i32 noundef %5) #0 {
  %7 = alloca i8, align 1
  %8 = alloca ptr, align 8
  %9 = alloca i32, align 4
  %10 = alloca ptr, align 8
  %11 = alloca ptr, align 8
  %12 = alloca i32, align 4
  %13 = alloca ptr, align 8
  %14 = zext i1 %0 to i8
  store i8 %14, ptr %7, align 1
  store ptr %1, ptr %8, align 8
  store i32 %2, ptr %9, align 4
  store ptr %3, ptr %10, align 8
  store ptr %4, ptr %11, align 8
  store i32 %5, ptr %12, align 4
  %15 = load i8, ptr %7, align 1
  %16 = trunc i8 %15 to i1
  %17 = load ptr, ptr %10, align 8
  %18 = load ptr, ptr %11, align 8
  %19 = load ptr, ptr %8, align 8
  %20 = load i32, ptr %9, align 4
  %21 = load i32, ptr %12, align 4
  %22 = call i32 @dissect_ber_object_identifier_str(i1 noundef zeroext %16, ptr noundef %17, ptr noundef %18, ptr noundef %19, i32 noundef %20, i32 noundef %21, ptr noundef @MechType_oid)
  store i32 %22, ptr %9, align 4
  %23 = load ptr, ptr @MechType_oid, align 8
  %24 = call ptr @gssapi_lookup_oid_str(ptr noundef %23)
  store ptr %24, ptr %13, align 8
  %25 = load i32, ptr @saw_mechanism, align 4
  %26 = icmp ne i32 %25, 0
  br i1 %26, label %33, label %27

27:                                               ; preds = %6
  %28 = load ptr, ptr %13, align 8
  %29 = icmp ne ptr %28, null
  br i1 %29, label %30, label %32

30:                                               ; preds = %27
  %31 = load ptr, ptr %13, align 8
  store ptr %31, ptr @next_level_value, align 8
  br label %32

32:                                               ; preds = %30, %27
  store i32 1, ptr @saw_mechanism, align 4
  br label %33

33:                                               ; preds = %32, %6
  %34 = load i32, ptr %9, align 4
  ret i32 %34
}