; Function Attrs: nounwind uwtable
define internal i32 @dissect_spnego_MechType(i1 noundef zeroext %0, ptr noundef %1, i32 noundef %2, ptr noundef %3, ptr noundef %4, i32 noundef %5) #0 {
  %7 = tail call i32 @dissect_ber_object_identifier_str(i1 noundef zeroext %0, ptr noundef %3, ptr noundef %4, ptr noundef %1, i32 noundef %2, i32 noundef %5, ptr noundef nonnull @MechType_oid) #6
  %8 = load ptr, ptr @MechType_oid, align 8
  %9 = tail call ptr @gssapi_lookup_oid_str(ptr noundef %8) #6
  %10 = load i32, ptr @saw_mechanism, align 4
  %.not = icmp eq i32 %10, 0
  br i1 %.not, label %11, label %14

11:                                               ; preds = %6
  %.not8 = icmp eq ptr %9, null
  br i1 %.not8, label %13, label %12

12:                                               ; preds = %11
  store ptr %9, ptr @next_level_value, align 8
  br label %13

13:                                               ; preds = %12, %11
  store i32 1, ptr @saw_mechanism, align 4
  br label %14

14:                                               ; preds = %13, %6
  ret i32 %7
}